target datalayout = "e-m:e-p270:32:32-p271:32:32-p272:64:64-i64:64-i128:128-f80:128-n8:16:32:64-S128"
target triple = "x86_64-pc-linux-gnu"

%struct.slurmdb_cluster_rec = type { ptr, i16, i64, %struct.sockaddr_storage, ptr, i32, i16, ptr, i16, %struct.slurmdb_cluster_fed_t, i32, %union.pthread_mutex_t, ptr, ptr, ptr, i16, ptr, ptr }
%struct.sockaddr_storage = type { i16, [118 x i8], i64 }
%struct.slurmdb_cluster_fed_t = type { ptr, i32, ptr, ptr, ptr, i32, i8, i8 }
%union.pthread_mutex_t = type { %struct.__pthread_mutex_s }
%struct.__pthread_mutex_s = type { i32, i32, i32, i32, i32, i16, i16, %struct.__pthread_internal_list }
%struct.__pthread_internal_list = type { ptr, ptr }

@.str.190 = private unnamed_addr constant [32 x i8] c"%s: pthread_mutex_destroy(): %m\00", align 1
@__func__._free_cluster_rec_members = private unnamed_addr constant [26 x i8] c"_free_cluster_rec_members\00", align 1

; Function Attrs: nounwind uwtable
define dso_local void @slurmdb_destroy_assoc_rec(ptr noundef %0) #0 {
  %2 = alloca ptr, align 8
  %3 = alloca ptr, align 8
  store ptr %0, ptr %2, align 8
  call void @llvm.lifetime.start.p0(i64 8, ptr %3) #10
  %4 = load ptr, ptr %2, align 8
  store ptr %4, ptr %3, align 8
  %5 = load ptr, ptr %3, align 8
  %6 = icmp ne ptr %5, null
  br i1 %6, label %7, label %9

7:                                                ; preds = %1
  %8 = load ptr, ptr %3, align 8
  call void @slurmdb_free_assoc_rec_members(ptr noundef %8)
  call void @slurm_xfree(ptr noundef %3)
  br label %9

9:                                                ; preds = %7, %1
  call void @llvm.lifetime.end.p0(i64 8, ptr %3) #10
  ret void
}

; Function Attrs: nounwind uwtable
define internal void @_free_cluster_rec_members(ptr noundef %0) #0 {
  %2 = alloca ptr, align 8
  %3 = alloca i32, align 4
  store ptr %0, ptr %2, align 8
  %4 = load ptr, ptr %2, align 8
  %5 = icmp ne ptr %4, null
  br i1 %5, label %6, label %84

6:                                                ; preds = %1
  br label %7

7:                                                ; preds = %6
  %8 = load ptr, ptr %2, align 8
  %9 = getelementptr inbounds nuw %struct.slurmdb_cluster_rec, ptr %8, i32 0, i32 0
  %10 = load ptr, ptr %9, align 8
  %11 = icmp ne ptr %10, null
  br i1 %11, label %12, label %16

12:                                               ; preds = %7
  %13 = load ptr, ptr %2, align 8
  %14 = getelementptr inbounds nuw %struct.slurmdb_cluster_rec, ptr %13, i32 0, i32 0
  %15 = load ptr, ptr %14, align 8
  call void @list_destroy(ptr noundef %15)
  br label %16

16:                                               ; preds = %12, %7
  %17 = load ptr, ptr %2, align 8
  %18 = getelementptr inbounds nuw %struct.slurmdb_cluster_rec, ptr %17, i32 0, i32 0
  store ptr null, ptr %18, align 8
  br label %19

19:                                               ; preds = %16
  %20 = load ptr, ptr %2, align 8
  %21 = getelementptr inbounds nuw %struct.slurmdb_cluster_rec, ptr %20, i32 0, i32 4
  call void @slurm_xfree(ptr noundef %21)
  %22 = load ptr, ptr %2, align 8
  %23 = getelementptr inbounds nuw %struct.slurmdb_cluster_rec, ptr %22, i32 0, i32 7
  call void @slurm_xfree(ptr noundef %23)
  br label %24

24:                                               ; preds = %19
  %25 = load ptr, ptr %2, align 8
  %26 = getelementptr inbounds nuw %struct.slurmdb_cluster_rec, ptr %25, i32 0, i32 9
  %27 = getelementptr inbounds nuw %struct.slurmdb_cluster_fed_t, ptr %26, i32 0, i32 0
  %28 = load ptr, ptr %27, align 8
  %29 = icmp ne ptr %28, null
  br i1 %29, label %30, label %35

30:                                               ; preds = %24
  %31 = load ptr, ptr %2, align 8
  %32 = getelementptr inbounds nuw %struct.slurmdb_cluster_rec, ptr %31, i32 0, i32 9
  %33 = getelementptr inbounds nuw %struct.slurmdb_cluster_fed_t, ptr %32, i32 0, i32 0
  %34 = load ptr, ptr %33, align 8
  call void @list_destroy(ptr noundef %34)
  br label %35

35:                                               ; preds = %30, %24
  %36 = load ptr, ptr %2, align 8
  %37 = getelementptr inbounds nuw %struct.slurmdb_cluster_rec, ptr %36, i32 0, i32 9
  %38 = getelementptr inbounds nuw %struct.slurmdb_cluster_fed_t, ptr %37, i32 0, i32 0
  store ptr null, ptr %38, align 8
  br label %39

39:                                               ; preds = %35
  %40 = load ptr, ptr %2, align 8
  %41 = getelementptr inbounds nuw %struct.slurmdb_cluster_rec, ptr %40, i32 0, i32 9
  %42 = getelementptr inbounds nuw %struct.slurmdb_cluster_fed_t, ptr %41, i32 0, i32 2
  call void @slurm_xfree(ptr noundef %42)
  %43 = load ptr, ptr %2, align 8
  %44 = getelementptr inbounds nuw %struct.slurmdb_cluster_rec, ptr %43, i32 0, i32 9
  %45 = getelementptr inbounds nuw %struct.slurmdb_cluster_fed_t, ptr %44, i32 0, i32 3
  %46 = load ptr, ptr %45, align 8
  call void @slurm_persist_conn_destroy(ptr noundef %46)
  %47 = load ptr, ptr %2, align 8
  %48 = getelementptr inbounds nuw %struct.slurmdb_cluster_rec, ptr %47, i32 0, i32 9
  %49 = getelementptr inbounds nuw %struct.slurmdb_cluster_fed_t, ptr %48, i32 0, i32 4
  %50 = load ptr, ptr %49, align 8
  call void @slurm_persist_conn_destroy(ptr noundef %50)
  br label %51

51:                                               ; preds = %39
  call void @llvm.lifetime.start.p0(i64 4, ptr %3) #10
  %52 = load ptr, ptr %2, align 8
  %53 = getelementptr inbounds nuw %struct.slurmdb_cluster_rec, ptr %52, i32 0, i32 11
  %54 = call i32 @pthread_mutex_destroy(ptr noundef %53) #10
  store i32 %54, ptr %3, align 4
  %55 = load i32, ptr %3, align 4
  %56 = icmp ne i32 %55, 0
  br i1 %56, label %57, label %60

57:                                               ; preds = %51
  %58 = load i32, ptr %3, align 4
  %59 = call ptr @__errno_location() #13
  store i32 %58, ptr %59, align 4
  call void (ptr, ...) @fatal_abort(ptr noundef @.str.190, ptr noundef @__func__._free_cluster_rec_members) #12
  unreachable

60:                                               ; preds = %51
  call void @llvm.lifetime.end.p0(i64 4, ptr %3) #10
  br label %61

61:                                               ; preds = %60
  %62 = load ptr, ptr %2, align 8
  %63 = getelementptr inbounds nuw %struct.slurmdb_cluster_rec, ptr %62, i32 0, i32 12
  call void @slurm_xfree(ptr noundef %63)
  %64 = load ptr, ptr %2, align 8
  %65 = getelementptr inbounds nuw %struct.slurmdb_cluster_rec, ptr %64, i32 0, i32 13
  call void @slurm_xfree(ptr noundef %65)
  %66 = load ptr, ptr %2, align 8
  %67 = getelementptr inbounds nuw %struct.slurmdb_cluster_rec, ptr %66, i32 0, i32 14
  %68 = load ptr, ptr %67, align 8
  call void @slurmdb_destroy_assoc_rec(ptr noundef %68)
  br label %69

69:                                               ; preds = %61
  %70 = load ptr, ptr %2, align 8
  %71 = getelementptr inbounds nuw %struct.slurmdb_cluster_rec, ptr %70, i32 0, i32 16
  %72 = load ptr, ptr %71, align 8
  %73 = icmp ne ptr %72, null
  br i1 %73, label %74, label %78

74:                                               ; preds = %69
  %75 = load ptr, ptr %2, align 8
  %76 = getelementptr inbounds nuw %struct.slurmdb_cluster_rec, ptr %75, i32 0, i32 16
  %77 = load ptr, ptr %76, align 8
  call void @list_destroy(ptr noundef %77)
  br label %78

78:                                               ; preds = %74, %69
  %79 = load ptr, ptr %2, align 8
  %80 = getelementptr inbounds nuw %struct.slurmdb_cluster_rec, ptr %79, i32 0, i32 16
  store ptr null, ptr %80, align 8
  br label %81

81:                                               ; preds = %78
  %82 = load ptr, ptr %2, align 8
  %83 = getelementptr inbounds nuw %struct.slurmdb_cluster_rec, ptr %82, i32 0, i32 17
  call void @slurm_xfree(ptr noundef %83)
  br label %84

84:                                               ; preds = %81, %1
  ret void
}