; Function Attrs: nounwind uwtable
define internal fastcc void @_free_cluster_rec_members(ptr noundef nonnull %0) unnamed_addr #0 {
  %2 = alloca ptr, align 8
  %3 = load ptr, ptr %0, align 8
  %.not = icmp eq ptr %3, null
  br i1 %.not, label %5, label %4

4:                                                ; preds = %1
  tail call void @list_destroy(ptr noundef nonnull %3) #19
  br label %5

5:                                                ; preds = %4, %1
  store ptr null, ptr %0, align 8
  %6 = getelementptr inbounds nuw i8, ptr %0, i64 152
  tail call void @slurm_xfree(ptr noundef nonnull %6) #19
  %7 = getelementptr inbounds nuw i8, ptr %0, i64 168
  tail call void @slurm_xfree(ptr noundef nonnull %7) #19
  %8 = getelementptr inbounds nuw i8, ptr %0, i64 184
  %9 = load ptr, ptr %8, align 8
  %.not25 = icmp eq ptr %9, null
  br i1 %.not25, label %11, label %10

10:                                               ; preds = %5
  tail call void @list_destroy(ptr noundef nonnull %9) #19
  br label %11

11:                                               ; preds = %10, %5
  store ptr null, ptr %8, align 8
  %12 = getelementptr inbounds nuw i8, ptr %0, i64 200
  tail call void @slurm_xfree(ptr noundef nonnull %12) #19
  %13 = getelementptr inbounds nuw i8, ptr %0, i64 208
  %14 = load ptr, ptr %13, align 8
  tail call void @slurm_persist_conn_destroy(ptr noundef %14) #19
  %15 = getelementptr inbounds nuw i8, ptr %0, i64 216
  %16 = load ptr, ptr %15, align 8
  tail call void @slurm_persist_conn_destroy(ptr noundef %16) #19
  %17 = getelementptr inbounds nuw i8, ptr %0, i64 240
  %18 = tail call i32 @pthread_mutex_destroy(ptr noundef nonnull %17) #19
  %.not26 = icmp eq i32 %18, 0
  br i1 %.not26, label %21, label %19

19:                                               ; preds = %11
  %20 = tail call ptr @__errno_location() #22
  store i32 %18, ptr %20, align 4
  tail call void (ptr, ...) @fatal_abort(ptr noundef nonnull @.str.190, ptr noundef nonnull @__func__._free_cluster_rec_members) #21
  unreachable

21:                                               ; preds = %11
  %22 = getelementptr inbounds nuw i8, ptr %0, i64 280
  tail call void @slurm_xfree(ptr noundef nonnull %22) #19
  %23 = getelementptr inbounds nuw i8, ptr %0, i64 288
  tail call void @slurm_xfree(ptr noundef nonnull %23) #19
  %24 = getelementptr inbounds nuw i8, ptr %0, i64 296
  %25 = load ptr, ptr %24, align 8
  call void @llvm.lifetime.start.p0(i64 8, ptr nonnull %2) #19
  store ptr %25, ptr %2, align 8
  %.not.i = icmp eq ptr %25, null
  br i1 %.not.i, label %slurmdb_destroy_assoc_rec.exit, label %26

26:                                               ; preds = %21
  tail call void @slurmdb_free_assoc_rec_members(ptr noundef nonnull %25)
  call void @slurm_xfree(ptr noundef nonnull %2) #19
  br label %slurmdb_destroy_assoc_rec.exit

slurmdb_destroy_assoc_rec.exit:                   ; preds = %21, %26
  call void @llvm.lifetime.end.p0(i64 8, ptr nonnull %2) #19
  %27 = getelementptr inbounds nuw i8, ptr %0, i64 312
  %28 = load ptr, ptr %27, align 8
  %.not27 = icmp eq ptr %28, null
  br i1 %.not27, label %30, label %29

29:                                               ; preds = %slurmdb_destroy_assoc_rec.exit
  call void @list_destroy(ptr noundef nonnull %28) #19
  br label %30

30:                                               ; preds = %29, %slurmdb_destroy_assoc_rec.exit
  store ptr null, ptr %27, align 8
  %31 = getelementptr inbounds nuw i8, ptr %0, i64 320
  call void @slurm_xfree(ptr noundef nonnull %31) #19
  ret void
}